; ModuleID = '12/949.c'
source_filename = "12/949.c"
target datalayout = "e-m:e-p270:32:32-p271:32:32-p272:64:64-i64:64-f80:128-n8:16:32:64-S128"
target triple = "x86_64-pc-linux-gnu"

@.str = private unnamed_addr constant [3 x i8] c"%d\00", align 1
@.str.1 = private unnamed_addr constant [4 x i8] c"%d\0A\00", align 1

; Function Attrs: noinline nounwind uwtable
define dso_local i32 @main() #0 {
  %1 = alloca i32, align 4
  %2 = alloca i32, align 4
  %3 = alloca [16 x i32], align 16
  %4 = alloca i32, align 4
  %5 = alloca i32, align 4
  %6 = alloca i32, align 4
  %7 = alloca [200 x i32], align 16
  %8 = alloca i32, align 4
  %9 = alloca i32, align 4
  store i32 0, i32* %1, align 4
  store i32 0, i32* %4, align 4
  store i32 0, i32* %5, align 4
  store i32 0, i32* %8, align 4
  store i32 0, i32* %9, align 4
  store i32 0, i32* %2, align 4
  br label %10

10:                                               ; preds = %27, %0
  %11 = load i32, i32* %2, align 4
  %12 = icmp slt i32 %11, 200
  br i1 %12, label %13, label %30

13:                                               ; preds = %10
  %14 = load i32, i32* %2, align 4
  %15 = sext i32 %14 to i64
  %16 = getelementptr inbounds [200 x i32], [200 x i32]* %7, i64 0, i64 %15
  %17 = call i32 (i8*, ...) @__isoc99_scanf(i8* getelementptr inbounds ([3 x i8], [3 x i8]* @.str, i64 0, i64 0), i32* %16)
  %18 = load i32, i32* %8, align 4
  %19 = add nsw i32 %18, 1
  store i32 %19, i32* %8, align 4
  %20 = load i32, i32* %2, align 4
  %21 = sext i32 %20 to i64
  %22 = getelementptr inbounds [200 x i32], [200 x i32]* %7, i64 0, i64 %21
  %23 = load i32, i32* %22, align 4
  %24 = icmp slt i32 %23, 0
  br i1 %24, label %25, label %26

25:                                               ; preds = %13
  store i32 300, i32* %2, align 4
  br label %26

26:                                               ; preds = %25, %13
  br label %27

27:                                               ; preds = %26
  %28 = load i32, i32* %2, align 4
  %29 = add nsw i32 %28, 1
  store i32 %29, i32* %2, align 4
  br label %10

30:                                               ; preds = %10
  store i32 0, i32* %2, align 4
  br label %31

31:                                               ; preds = %94, %30
  %32 = load i32, i32* %2, align 4
  %33 = icmp slt i32 %32, 16
  br i1 %33, label %34, label %99

34:                                               ; preds = %31
  %35 = load i32, i32* %9, align 4
  %36 = sext i32 %35 to i64
  %37 = getelementptr inbounds [200 x i32], [200 x i32]* %7, i64 0, i64 %36
  %38 = load i32, i32* %37, align 4
  %39 = load i32, i32* %2, align 4
  %40 = sext i32 %39 to i64
  %41 = getelementptr inbounds [16 x i32], [16 x i32]* %3, i64 0, i64 %40
  store i32 %38, i32* %41, align 4
  %42 = load i32, i32* %2, align 4
  %43 = sext i32 %42 to i64
  %44 = getelementptr inbounds [16 x i32], [16 x i32]* %3, i64 0, i64 %43
  %45 = load i32, i32* %44, align 4
  %46 = icmp sgt i32 %45, 0
  br i1 %46, label %47, label %82

47:                                               ; preds = %34
  store i32 0, i32* %6, align 4
  br label %48

48:                                               ; preds = %78, %47
  %49 = load i32, i32* %6, align 4
  %50 = load i32, i32* %2, align 4
  %51 = icmp slt i32 %49, %50
  br i1 %51, label %52, label %81

52:                                               ; preds = %48
  %53 = load i32, i32* %2, align 4
  %54 = sext i32 %53 to i64
  %55 = getelementptr inbounds [16 x i32], [16 x i32]* %3, i64 0, i64 %54
  %56 = load i32, i32* %55, align 4
  %57 = load i32, i32* %6, align 4
  %58 = sext i32 %57 to i64
  %59 = getelementptr inbounds [16 x i32], [16 x i32]* %3, i64 0, i64 %58
  %60 = load i32, i32* %59, align 4
  %61 = mul nsw i32 2, %60
  %62 = icmp eq i32 %56, %61
  br i1 %62, label %74, label %63

63:                                               ; preds = %52
  %64 = load i32, i32* %6, align 4
  %65 = sext i32 %64 to i64
  %66 = getelementptr inbounds [16 x i32], [16 x i32]* %3, i64 0, i64 %65
  %67 = load i32, i32* %66, align 4
  %68 = load i32, i32* %2, align 4
  %69 = sext i32 %68 to i64
  %70 = getelementptr inbounds [16 x i32], [16 x i32]* %3, i64 0, i64 %69
  %71 = load i32, i32* %70, align 4
  %72 = mul nsw i32 2, %71
  %73 = icmp eq i32 %67, %72
  br i1 %73, label %74, label %77

74:                                               ; preds = %63, %52
  %75 = load i32, i32* %4, align 4
  %76 = add nsw i32 %75, 1
  store i32 %76, i32* %4, align 4
  br label %77

77:                                               ; preds = %74, %63
  br label %78

78:                                               ; preds = %77
  %79 = load i32, i32* %6, align 4
  %80 = add nsw i32 %79, 1
  store i32 %80, i32* %6, align 4
  br label %48

81:                                               ; preds = %48
  br label %93

82:                                               ; preds = %34
  %83 = load i32, i32* %2, align 4
  %84 = sext i32 %83 to i64
  %85 = getelementptr inbounds [16 x i32], [16 x i32]* %3, i64 0, i64 %84
  %86 = load i32, i32* %85, align 4
  %87 = icmp eq i32 %86, 0
  br i1 %87, label %88, label %91

88:                                               ; preds = %82
  store i32 -1, i32* %2, align 4
  %89 = load i32, i32* %4, align 4
  %90 = call i32 (i8*, ...) @printf(i8* getelementptr inbounds ([4 x i8], [4 x i8]* @.str.1, i64 0, i64 0), i32 %89)
  store i32 0, i32* %4, align 4
  br label %92

91:                                               ; preds = %82
  store i32 100, i32* %2, align 4
  br label %92

92:                                               ; preds = %91, %88
  br label %93

93:                                               ; preds = %92, %81
  br label %94

94:                                               ; preds = %93
  %95 = load i32, i32* %2, align 4
  %96 = add nsw i32 %95, 1
  store i32 %96, i32* %2, align 4
  %97 = load i32, i32* %9, align 4
  %98 = add nsw i32 %97, 1
  store i32 %98, i32* %9, align 4
  br label %31

99:                                               ; preds = %31
  ret i32 0
}

declare dso_local i32 @__isoc99_scanf(i8*, ...) #1

declare dso_local i32 @printf(i8*, ...) #1


!llvm.module.flags = !{!0}
!llvm.ident = !{!1}

!0 = !{i32 1, !"wchar_size", i32 4}
!1 = !{!"clang version 10.0.0-4ubuntu1 "}
